; Function Attrs: mustprogress uwtable
define void @_ZN2mu10ParserBase16ClearPostfixOprtEv(ptr noundef nonnull align 8 dereferenceable(596) %0) local_unnamed_addr #7 align 2 personality ptr @__gxx_personality_v0 {
  %2 = getelementptr inbounds i8, ptr %0, i64 176
  %3 = getelementptr inbounds i8, ptr %0, i64 192
  %4 = load ptr, ptr %3, align 8
  invoke void @_ZNSt8_Rb_treeINSt7__cxx1112basic_stringIcSt11char_traitsIcESaIcEEESt4pairIKS5_N2mu14ParserCallbackEESt10_Select1stISA_ESt4lessIS5_ESaISA_EE8_M_eraseEPSt13_Rb_tree_nodeISA_E(ptr noundef nonnull align 8 dereferenceable(48) %2, ptr noundef %4)
          to label %_ZNSt3mapINSt7__cxx1112basic_stringIcSt11char_traitsIcESaIcEEEN2mu14ParserCallbackESt4lessIS5_ESaISt4pairIKS5_S7_EEE5clearEv.exit unwind label %5

5:                                                ; preds = %1
  %6 = landingpad { ptr, i32 }
          catch ptr null
  %7 = extractvalue { ptr, i32 } %6, 0
  tail call void @__clang_call_terminate(ptr %7) #29
  unreachable

_ZNSt3mapINSt7__cxx1112basic_stringIcSt11char_traitsIcESaIcEEEN2mu14ParserCallbackESt4lessIS5_ESaISt4pairIKS5_S7_EEE5clearEv.exit: ; preds = %1
  %8 = getelementptr inbounds i8, ptr %0, i64 184
  store ptr null, ptr %3, align 8
  %9 = getelementptr inbounds i8, ptr %0, i64 200
  store ptr %8, ptr %9, align 8
  %10 = getelementptr inbounds i8, ptr %0, i64 208
  store ptr %8, ptr %10, align 8
  %11 = getelementptr inbounds i8, ptr %0, i64 216
  store i64 0, ptr %11, align 8
  %12 = getelementptr inbounds i8, ptr %0, i64 8
  store i64 ptrtoint (ptr @_ZNK2mu10ParserBase11ParseStringEv to i64), ptr %12, align 8
  %.repack1.i = getelementptr inbounds i8, ptr %0, i64 16
  store i64 0, ptr %.repack1.i, align 8
  %13 = getelementptr inbounds i8, ptr %0, i64 72
  %14 = load ptr, ptr %13, align 8
  %15 = getelementptr inbounds i8, ptr %0, i64 80
  %16 = load ptr, ptr %15, align 8
  %.not.i.i.i = icmp eq ptr %16, %14
  br i1 %.not.i.i.i, label %_ZNK2mu10ParserBase6ReInitEv.exit, label %.lr.ph.i.i.i.i.i.i

.lr.ph.i.i.i.i.i.i:                               ; preds = %_ZNSt3mapINSt7__cxx1112basic_stringIcSt11char_traitsIcESaIcEEEN2mu14ParserCallbackESt4lessIS5_ESaISt4pairIKS5_S7_EEE5clearEv.exit, %.lr.ph.i.i.i.i.i.i
  %.05.i.i.i.i.i.i = phi ptr [ %17, %.lr.ph.i.i.i.i.i.i ], [ %14, %_ZNSt3mapINSt7__cxx1112basic_stringIcSt11char_traitsIcESaIcEEEN2mu14ParserCallbackESt4lessIS5_ESaISt4pairIKS5_S7_EEE5clearEv.exit ]
  tail call void @_ZNSt7__cxx1112basic_stringIcSt11char_traitsIcESaIcEED1Ev(ptr noundef nonnull align 8 dereferenceable(32) %.05.i.i.i.i.i.i) #23
  %17 = getelementptr inbounds i8, ptr %.05.i.i.i.i.i.i, i64 32
  %.not.i.i.i.i.i.i = icmp eq ptr %17, %16
  br i1 %.not.i.i.i.i.i.i, label %_ZSt8_DestroyIPNSt7__cxx1112basic_stringIcSt11char_traitsIcESaIcEEES5_EvT_S7_RSaIT0_E.exit.i.i.i, label %.lr.ph.i.i.i.i.i.i, !llvm.loop !5

_ZSt8_DestroyIPNSt7__cxx1112basic_stringIcSt11char_traitsIcESaIcEEES5_EvT_S7_RSaIT0_E.exit.i.i.i: ; preds = %.lr.ph.i.i.i.i.i.i
  store ptr %14, ptr %15, align 8
  br label %_ZNK2mu10ParserBase6ReInitEv.exit

_ZNK2mu10ParserBase6ReInitEv.exit:                ; preds = %_ZNSt3mapINSt7__cxx1112basic_stringIcSt11char_traitsIcESaIcEEEN2mu14ParserCallbackESt4lessIS5_ESaISt4pairIKS5_S7_EEE5clearEv.exit, %_ZSt8_DestroyIPNSt7__cxx1112basic_stringIcSt11char_traitsIcESaIcEEES5_EvT_S7_RSaIT0_E.exit.i.i.i
  %18 = getelementptr inbounds i8, ptr %0, i64 24
  tail call void @_ZN2mu14ParserByteCode5clearEv(ptr noundef nonnull align 8 dereferenceable(48) %18)
  %19 = getelementptr inbounds i8, ptr %0, i64 120
  %20 = load ptr, ptr %19, align 8
  tail call void @_ZN2mu17ParserTokenReader6ReInitEv(ptr noundef nonnull align 8 dereferenceable(400) %20)
  ret void
}